target datalayout = "e-m:e-p270:32:32-p271:32:32-p272:64:64-i64:64-i128:128-f80:128-n8:16:32:64-S128"
target triple = "x86_64-pc-linux-gnu"

; Function Attrs: alwaysinline nounwind willreturn memory(none) uwtable
define internal i32 @av_clip_c(i32 noundef %0, i32 noundef %1, i32 noundef %2) #2 {
  %4 = alloca i32, align 4
  %5 = alloca i32, align 4
  %6 = alloca i32, align 4
  %7 = alloca i32, align 4
  store i32 %0, ptr %5, align 4, !tbaa !9
  store i32 %1, ptr %6, align 4, !tbaa !9
  store i32 %2, ptr %7, align 4, !tbaa !9
  %8 = load i32, ptr %5, align 4, !tbaa !9
  %9 = load i32, ptr %6, align 4, !tbaa !9
  %10 = icmp slt i32 %8, %9
  br i1 %10, label %11, label %13

11:                                               ; preds = %3
  %12 = load i32, ptr %6, align 4, !tbaa !9
  store i32 %12, ptr %4, align 4
  br label %21

13:                                               ; preds = %3
  %14 = load i32, ptr %5, align 4, !tbaa !9
  %15 = load i32, ptr %7, align 4, !tbaa !9
  %16 = icmp sgt i32 %14, %15
  br i1 %16, label %17, label %19

17:                                               ; preds = %13
  %18 = load i32, ptr %7, align 4, !tbaa !9
  store i32 %18, ptr %4, align 4
  br label %21

19:                                               ; preds = %13
  %20 = load i32, ptr %5, align 4, !tbaa !9
  store i32 %20, ptr %4, align 4
  br label %21

21:                                               ; preds = %19, %17, %11
  %22 = load i32, ptr %4, align 4
  ret i32 %22
}

; Function Attrs: nounwind uwtable
define void @ff_gmc_c(ptr noundef %0, ptr noundef %1, i32 noundef %2, i32 noundef %3, i32 noundef %4, i32 noundef %5, i32 noundef %6, i32 noundef %7, i32 noundef %8, i32 noundef %9, i32 noundef %10, i32 noundef %11, i32 noundef %12, i32 noundef %13) #0 {
  %15 = alloca ptr, align 8
  %16 = alloca ptr, align 8
  %17 = alloca i32, align 4
  %18 = alloca i32, align 4
  %19 = alloca i32, align 4
  %20 = alloca i32, align 4
  %21 = alloca i32, align 4
  %22 = alloca i32, align 4
  %23 = alloca i32, align 4
  %24 = alloca i32, align 4
  %25 = alloca i32, align 4
  %26 = alloca i32, align 4
  %27 = alloca i32, align 4
  %28 = alloca i32, align 4
  %29 = alloca i32, align 4
  %30 = alloca i32, align 4
  %31 = alloca i32, align 4
  %32 = alloca i32, align 4
  %33 = alloca i32, align 4
  %34 = alloca i32, align 4
  %35 = alloca i32, align 4
  %36 = alloca i32, align 4
  %37 = alloca i32, align 4
  %38 = alloca i32, align 4
  store ptr %0, ptr %15, align 8, !tbaa !4
  store ptr %1, ptr %16, align 8, !tbaa !4
  store i32 %2, ptr %17, align 4, !tbaa !9
  store i32 %3, ptr %18, align 4, !tbaa !9
  store i32 %4, ptr %19, align 4, !tbaa !9
  store i32 %5, ptr %20, align 4, !tbaa !9
  store i32 %6, ptr %21, align 4, !tbaa !9
  store i32 %7, ptr %22, align 4, !tbaa !9
  store i32 %8, ptr %23, align 4, !tbaa !9
  store i32 %9, ptr %24, align 4, !tbaa !9
  store i32 %10, ptr %25, align 4, !tbaa !9
  store i32 %11, ptr %26, align 4, !tbaa !9
  store i32 %12, ptr %27, align 4, !tbaa !9
  store i32 %13, ptr %28, align 4, !tbaa !9
  call void @llvm.lifetime.start.p0(i64 4, ptr %29) #4
  call void @llvm.lifetime.start.p0(i64 4, ptr %30) #4
  call void @llvm.lifetime.start.p0(i64 4, ptr %31) #4
  call void @llvm.lifetime.start.p0(i64 4, ptr %32) #4
  %39 = load i32, ptr %25, align 4, !tbaa !9
  %40 = shl i32 1, %39
  store i32 %40, ptr %32, align 4, !tbaa !9
  %41 = load i32, ptr %27, align 4, !tbaa !9
  %42 = add nsw i32 %41, -1
  store i32 %42, ptr %27, align 4, !tbaa !9
  %43 = load i32, ptr %28, align 4, !tbaa !9
  %44 = add nsw i32 %43, -1
  store i32 %44, ptr %28, align 4, !tbaa !9
  store i32 0, ptr %29, align 4, !tbaa !9
  br label %45

45:                                               ; preds = %287, %14
  %46 = load i32, ptr %29, align 4, !tbaa !9
  %47 = load i32, ptr %18, align 4, !tbaa !9
  %48 = icmp slt i32 %46, %47
  br i1 %48, label %49, label %290

49:                                               ; preds = %45
  call void @llvm.lifetime.start.p0(i64 4, ptr %33) #4
  %50 = load i32, ptr %19, align 4, !tbaa !9
  store i32 %50, ptr %30, align 4, !tbaa !9
  %51 = load i32, ptr %20, align 4, !tbaa !9
  store i32 %51, ptr %31, align 4, !tbaa !9
  store i32 0, ptr %33, align 4, !tbaa !9
  br label %52

52:                                               ; preds = %277, %49
  %53 = load i32, ptr %33, align 4, !tbaa !9
  %54 = icmp slt i32 %53, 8
  br i1 %54, label %55, label %280

55:                                               ; preds = %52
  call void @llvm.lifetime.start.p0(i64 4, ptr %34) #4
  call void @llvm.lifetime.start.p0(i64 4, ptr %35) #4
  %56 = load i32, ptr %30, align 4, !tbaa !9
  %57 = ashr i32 %56, 16
  store i32 %57, ptr %35, align 4, !tbaa !9
  call void @llvm.lifetime.start.p0(i64 4, ptr %36) #4
  %58 = load i32, ptr %31, align 4, !tbaa !9
  %59 = ashr i32 %58, 16
  store i32 %59, ptr %36, align 4, !tbaa !9
  call void @llvm.lifetime.start.p0(i64 4, ptr %37) #4
  %60 = load i32, ptr %35, align 4, !tbaa !9
  %61 = load i32, ptr %32, align 4, !tbaa !9
  %62 = sub nsw i32 %61, 1
  %63 = and i32 %60, %62
  store i32 %63, ptr %37, align 4, !tbaa !9
  call void @llvm.lifetime.start.p0(i64 4, ptr %38) #4
  %64 = load i32, ptr %36, align 4, !tbaa !9
  %65 = load i32, ptr %32, align 4, !tbaa !9
  %66 = sub nsw i32 %65, 1
  %67 = and i32 %64, %66
  store i32 %67, ptr %38, align 4, !tbaa !9
  %68 = load i32, ptr %25, align 4, !tbaa !9
  %69 = load i32, ptr %35, align 4, !tbaa !9
  %70 = ashr i32 %69, %68
  store i32 %70, ptr %35, align 4, !tbaa !9
  %71 = load i32, ptr %25, align 4, !tbaa !9
  %72 = load i32, ptr %36, align 4, !tbaa !9
  %73 = ashr i32 %72, %71
  store i32 %73, ptr %36, align 4, !tbaa !9
  %74 = load i32, ptr %35, align 4, !tbaa !9
  %75 = load i32, ptr %27, align 4, !tbaa !9
  %76 = icmp ult i32 %74, %75
  br i1 %76, label %77, label %197

77:                                               ; preds = %55
  %78 = load i32, ptr %36, align 4, !tbaa !9
  %79 = load i32, ptr %28, align 4, !tbaa !9
  %80 = icmp ult i32 %78, %79
  br i1 %80, label %81, label %152

81:                                               ; preds = %77
  %82 = load i32, ptr %35, align 4, !tbaa !9
  %83 = load i32, ptr %36, align 4, !tbaa !9
  %84 = load i32, ptr %17, align 4, !tbaa !9
  %85 = mul nsw i32 %83, %84
  %86 = add nsw i32 %82, %85
  store i32 %86, ptr %34, align 4, !tbaa !9
  %87 = load ptr, ptr %16, align 8, !tbaa !4
  %88 = load i32, ptr %34, align 4, !tbaa !9
  %89 = sext i32 %88 to i64
  %90 = getelementptr inbounds i8, ptr %87, i64 %89
  %91 = load i8, ptr %90, align 1, !tbaa !11
  %92 = zext i8 %91 to i32
  %93 = load i32, ptr %32, align 4, !tbaa !9
  %94 = load i32, ptr %37, align 4, !tbaa !9
  %95 = sub nsw i32 %93, %94
  %96 = mul nsw i32 %92, %95
  %97 = load ptr, ptr %16, align 8, !tbaa !4
  %98 = load i32, ptr %34, align 4, !tbaa !9
  %99 = add nsw i32 %98, 1
  %100 = sext i32 %99 to i64
  %101 = getelementptr inbounds i8, ptr %97, i64 %100
  %102 = load i8, ptr %101, align 1, !tbaa !11
  %103 = zext i8 %102 to i32
  %104 = load i32, ptr %37, align 4, !tbaa !9
  %105 = mul nsw i32 %103, %104
  %106 = add nsw i32 %96, %105
  %107 = load i32, ptr %32, align 4, !tbaa !9
  %108 = load i32, ptr %38, align 4, !tbaa !9
  %109 = sub nsw i32 %107, %108
  %110 = mul nsw i32 %106, %109
  %111 = load ptr, ptr %16, align 8, !tbaa !4
  %112 = load i32, ptr %34, align 4, !tbaa !9
  %113 = load i32, ptr %17, align 4, !tbaa !9
  %114 = add nsw i32 %112, %113
  %115 = sext i32 %114 to i64
  %116 = getelementptr inbounds i8, ptr %111, i64 %115
  %117 = load i8, ptr %116, align 1, !tbaa !11
  %118 = zext i8 %117 to i32
  %119 = load i32, ptr %32, align 4, !tbaa !9
  %120 = load i32, ptr %37, align 4, !tbaa !9
  %121 = sub nsw i32 %119, %120
  %122 = mul nsw i32 %118, %121
  %123 = load ptr, ptr %16, align 8, !tbaa !4
  %124 = load i32, ptr %34, align 4, !tbaa !9
  %125 = load i32, ptr %17, align 4, !tbaa !9
  %126 = add nsw i32 %124, %125
  %127 = add nsw i32 %126, 1
  %128 = sext i32 %127 to i64
  %129 = getelementptr inbounds i8, ptr %123, i64 %128
  %130 = load i8, ptr %129, align 1, !tbaa !11
  %131 = zext i8 %130 to i32
  %132 = load i32, ptr %37, align 4, !tbaa !9
  %133 = mul nsw i32 %131, %132
  %134 = add nsw i32 %122, %133
  %135 = load i32, ptr %38, align 4, !tbaa !9
  %136 = mul nsw i32 %134, %135
  %137 = add nsw i32 %110, %136
  %138 = load i32, ptr %26, align 4, !tbaa !9
  %139 = add nsw i32 %137, %138
  %140 = load i32, ptr %25, align 4, !tbaa !9
  %141 = mul nsw i32 %140, 2
  %142 = ashr i32 %139, %141
  %143 = trunc i32 %142 to i8
  %144 = load ptr, ptr %15, align 8, !tbaa !4
  %145 = load i32, ptr %29, align 4, !tbaa !9
  %146 = load i32, ptr %17, align 4, !tbaa !9
  %147 = mul nsw i32 %145, %146
  %148 = load i32, ptr %33, align 4, !tbaa !9
  %149 = add nsw i32 %147, %148
  %150 = sext i32 %149 to i64
  %151 = getelementptr inbounds i8, ptr %144, i64 %150
  store i8 %143, ptr %151, align 1, !tbaa !11
  br label %196

152:                                              ; preds = %77
  %153 = load i32, ptr %35, align 4, !tbaa !9
  %154 = load i32, ptr %36, align 4, !tbaa !9
  %155 = load i32, ptr %28, align 4, !tbaa !9
  %156 = call i32 @av_clip_c(i32 noundef %154, i32 noundef 0, i32 noundef %155) #5
  %157 = load i32, ptr %17, align 4, !tbaa !9
  %158 = mul nsw i32 %156, %157
  %159 = add nsw i32 %153, %158
  store i32 %159, ptr %34, align 4, !tbaa !9
  %160 = load ptr, ptr %16, align 8, !tbaa !4
  %161 = load i32, ptr %34, align 4, !tbaa !9
  %162 = sext i32 %161 to i64
  %163 = getelementptr inbounds i8, ptr %160, i64 %162
  %164 = load i8, ptr %163, align 1, !tbaa !11
  %165 = zext i8 %164 to i32
  %166 = load i32, ptr %32, align 4, !tbaa !9
  %167 = load i32, ptr %37, align 4, !tbaa !9
  %168 = sub nsw i32 %166, %167
  %169 = mul nsw i32 %165, %168
  %170 = load ptr, ptr %16, align 8, !tbaa !4
  %171 = load i32, ptr %34, align 4, !tbaa !9
  %172 = add nsw i32 %171, 1
  %173 = sext i32 %172 to i64
  %174 = getelementptr inbounds i8, ptr %170, i64 %173
  %175 = load i8, ptr %174, align 1, !tbaa !11
  %176 = zext i8 %175 to i32
  %177 = load i32, ptr %37, align 4, !tbaa !9
  %178 = mul nsw i32 %176, %177
  %179 = add nsw i32 %169, %178
  %180 = load i32, ptr %32, align 4, !tbaa !9
  %181 = mul nsw i32 %179, %180
  %182 = load i32, ptr %26, align 4, !tbaa !9
  %183 = add nsw i32 %181, %182
  %184 = load i32, ptr %25, align 4, !tbaa !9
  %185 = mul nsw i32 %184, 2
  %186 = ashr i32 %183, %185
  %187 = trunc i32 %186 to i8
  %188 = load ptr, ptr %15, align 8, !tbaa !4
  %189 = load i32, ptr %29, align 4, !tbaa !9
  %190 = load i32, ptr %17, align 4, !tbaa !9
  %191 = mul nsw i32 %189, %190
  %192 = load i32, ptr %33, align 4, !tbaa !9
  %193 = add nsw i32 %191, %192
  %194 = sext i32 %193 to i64
  %195 = getelementptr inbounds i8, ptr %188, i64 %194
  store i8 %187, ptr %195, align 1, !tbaa !11
  br label %196

196:                                              ; preds = %152, %81
  br label %270

197:                                              ; preds = %55
  %198 = load i32, ptr %36, align 4, !tbaa !9
  %199 = load i32, ptr %28, align 4, !tbaa !9
  %200 = icmp ult i32 %198, %199
  br i1 %200, label %201, label %246

201:                                              ; preds = %197
  %202 = load i32, ptr %35, align 4, !tbaa !9
  %203 = load i32, ptr %27, align 4, !tbaa !9
  %204 = call i32 @av_clip_c(i32 noundef %202, i32 noundef 0, i32 noundef %203) #5
  %205 = load i32, ptr %36, align 4, !tbaa !9
  %206 = load i32, ptr %17, align 4, !tbaa !9
  %207 = mul nsw i32 %205, %206
  %208 = add nsw i32 %204, %207
  store i32 %208, ptr %34, align 4, !tbaa !9
  %209 = load ptr, ptr %16, align 8, !tbaa !4
  %210 = load i32, ptr %34, align 4, !tbaa !9
  %211 = sext i32 %210 to i64
  %212 = getelementptr inbounds i8, ptr %209, i64 %211
  %213 = load i8, ptr %212, align 1, !tbaa !11
  %214 = zext i8 %213 to i32
  %215 = load i32, ptr %32, align 4, !tbaa !9
  %216 = load i32, ptr %38, align 4, !tbaa !9
  %217 = sub nsw i32 %215, %216
  %218 = mul nsw i32 %214, %217
  %219 = load ptr, ptr %16, align 8, !tbaa !4
  %220 = load i32, ptr %34, align 4, !tbaa !9
  %221 = load i32, ptr %17, align 4, !tbaa !9
  %222 = add nsw i32 %220, %221
  %223 = sext i32 %222 to i64
  %224 = getelementptr inbounds i8, ptr %219, i64 %223
  %225 = load i8, ptr %224, align 1, !tbaa !11
  %226 = zext i8 %225 to i32
  %227 = load i32, ptr %38, align 4, !tbaa !9
  %228 = mul nsw i32 %226, %227
  %229 = add nsw i32 %218, %228
  %230 = load i32, ptr %32, align 4, !tbaa !9
  %231 = mul nsw i32 %229, %230
  %232 = load i32, ptr %26, align 4, !tbaa !9
  %233 = add nsw i32 %231, %232
  %234 = load i32, ptr %25, align 4, !tbaa !9
  %235 = mul nsw i32 %234, 2
  %236 = ashr i32 %233, %235
  %237 = trunc i32 %236 to i8
  %238 = load ptr, ptr %15, align 8, !tbaa !4
  %239 = load i32, ptr %29, align 4, !tbaa !9
  %240 = load i32, ptr %17, align 4, !tbaa !9
  %241 = mul nsw i32 %239, %240
  %242 = load i32, ptr %33, align 4, !tbaa !9
  %243 = add nsw i32 %241, %242
  %244 = sext i32 %243 to i64
  %245 = getelementptr inbounds i8, ptr %238, i64 %244
  store i8 %237, ptr %245, align 1, !tbaa !11
  br label %269

246:                                              ; preds = %197
  %247 = load i32, ptr %35, align 4, !tbaa !9
  %248 = load i32, ptr %27, align 4, !tbaa !9
  %249 = call i32 @av_clip_c(i32 noundef %247, i32 noundef 0, i32 noundef %248) #5
  %250 = load i32, ptr %36, align 4, !tbaa !9
  %251 = load i32, ptr %28, align 4, !tbaa !9
  %252 = call i32 @av_clip_c(i32 noundef %250, i32 noundef 0, i32 noundef %251) #5
  %253 = load i32, ptr %17, align 4, !tbaa !9
  %254 = mul nsw i32 %252, %253
  %255 = add nsw i32 %249, %254
  store i32 %255, ptr %34, align 4, !tbaa !9
  %256 = load ptr, ptr %16, align 8, !tbaa !4
  %257 = load i32, ptr %34, align 4, !tbaa !9
  %258 = sext i32 %257 to i64
  %259 = getelementptr inbounds i8, ptr %256, i64 %258
  %260 = load i8, ptr %259, align 1, !tbaa !11
  %261 = load ptr, ptr %15, align 8, !tbaa !4
  %262 = load i32, ptr %29, align 4, !tbaa !9
  %263 = load i32, ptr %17, align 4, !tbaa !9
  %264 = mul nsw i32 %262, %263
  %265 = load i32, ptr %33, align 4, !tbaa !9
  %266 = add nsw i32 %264, %265
  %267 = sext i32 %266 to i64
  %268 = getelementptr inbounds i8, ptr %261, i64 %267
  store i8 %260, ptr %268, align 1, !tbaa !11
  br label %269

269:                                              ; preds = %246, %201
  br label %270

270:                                              ; preds = %269, %196
  %271 = load i32, ptr %21, align 4, !tbaa !9
  %272 = load i32, ptr %30, align 4, !tbaa !9
  %273 = add nsw i32 %272, %271
  store i32 %273, ptr %30, align 4, !tbaa !9
  %274 = load i32, ptr %23, align 4, !tbaa !9
  %275 = load i32, ptr %31, align 4, !tbaa !9
  %276 = add nsw i32 %275, %274
  store i32 %276, ptr %31, align 4, !tbaa !9
  call void @llvm.lifetime.end.p0(i64 4, ptr %38) #4
  call void @llvm.lifetime.end.p0(i64 4, ptr %37) #4
  call void @llvm.lifetime.end.p0(i64 4, ptr %36) #4
  call void @llvm.lifetime.end.p0(i64 4, ptr %35) #4
  call void @llvm.lifetime.end.p0(i64 4, ptr %34) #4
  br label %277

277:                                              ; preds = %270
  %278 = load i32, ptr %33, align 4, !tbaa !9
  %279 = add nsw i32 %278, 1
  store i32 %279, ptr %33, align 4, !tbaa !9
  br label %52, !llvm.loop !12

280:                                              ; preds = %52
  %281 = load i32, ptr %22, align 4, !tbaa !9
  %282 = load i32, ptr %19, align 4, !tbaa !9
  %283 = add nsw i32 %282, %281
  store i32 %283, ptr %19, align 4, !tbaa !9
  %284 = load i32, ptr %24, align 4, !tbaa !9
  %285 = load i32, ptr %20, align 4, !tbaa !9
  %286 = add nsw i32 %285, %284
  store i32 %286, ptr %20, align 4, !tbaa !9
  call void @llvm.lifetime.end.p0(i64 4, ptr %33) #4
  br label %287

287:                                              ; preds = %280
  %288 = load i32, ptr %29, align 4, !tbaa !9
  %289 = add nsw i32 %288, 1
  store i32 %289, ptr %29, align 4, !tbaa !9
  br label %45, !llvm.loop !14

290:                                              ; preds = %45
  call void @llvm.lifetime.end.p0(i64 4, ptr %32) #4
  call void @llvm.lifetime.end.p0(i64 4, ptr %31) #4
  call void @llvm.lifetime.end.p0(i64 4, ptr %30) #4
  call void @llvm.lifetime.end.p0(i64 4, ptr %29) #4
  ret void
}