; Function Attrs: nofree norecurse nosync nounwind memory(argmem: readwrite) uwtable
define void @ff_gmc_c(ptr noundef writeonly captures(none) %0, ptr noundef readonly captures(none) %1, i32 noundef %2, i32 noundef %3, i32 noundef %4, i32 noundef %5, i32 noundef %6, i32 noundef %7, i32 noundef %8, i32 noundef %9, i32 noundef %10, i32 noundef %11, i32 noundef %12, i32 noundef %13) #0 {
  %15 = shl nuw i32 1, %10
  %16 = add nsw i32 %12, -1
  %17 = add nsw i32 %13, -1
  %18 = icmp sgt i32 %3, 0
  br i1 %18, label %.preheader.lr.ph, label %._crit_edge

.preheader.lr.ph:                                 ; preds = %14
  %19 = add nsw i32 %15, -1
  %20 = shl nsw i32 %10, 1
  %21 = sext i32 %2 to i64
  %wide.trip.count = zext nneg i32 %3 to i64
  br label %.preheader

.preheader:                                       ; preds = %.preheader.lr.ph, %116
  %indvars.iv133 = phi i64 [ 0, %.preheader.lr.ph ], [ %indvars.iv.next134, %116 ]
  %.0131 = phi i32 [ %4, %.preheader.lr.ph ], [ %117, %116 ]
  %.0109130 = phi i32 [ %5, %.preheader.lr.ph ], [ %118, %116 ]
  %22 = mul nsw i64 %indvars.iv133, %21
  %invariant.gep137.sink = getelementptr i8, ptr %0, i64 %22
  br label %23

23:                                               ; preds = %.preheader, %113
  %indvars.iv = phi i64 [ 0, %.preheader ], [ %indvars.iv.next, %113 ]
  %.0111127 = phi i32 [ %.0109130, %.preheader ], [ %115, %113 ]
  %.0112126 = phi i32 [ %.0131, %.preheader ], [ %114, %113 ]
  %24 = ashr i32 %.0112126, 16
  %25 = ashr i32 %.0111127, 16
  %26 = and i32 %24, %19
  %27 = and i32 %25, %19
  %28 = ashr i32 %24, %10
  %29 = ashr i32 %25, %10
  %30 = icmp ult i32 %28, %16
  %31 = icmp ult i32 %29, %17
  br i1 %30, label %32, label %84

32:                                               ; preds = %23
  br i1 %31, label %33, label %65

33:                                               ; preds = %32
  %34 = mul nsw i32 %29, %2
  %35 = add nsw i32 %34, %28
  %36 = sext i32 %35 to i64
  %37 = getelementptr inbounds i8, ptr %1, i64 %36
  %38 = load i8, ptr %37, align 1, !tbaa !4
  %39 = zext i8 %38 to i32
  %40 = sub nsw i32 %15, %26
  %41 = mul nsw i32 %40, %39
  %42 = getelementptr i8, ptr %37, i64 1
  %43 = load i8, ptr %42, align 1, !tbaa !4
  %44 = zext i8 %43 to i32
  %45 = mul nsw i32 %26, %44
  %46 = add nsw i32 %45, %41
  %47 = sub nsw i32 %15, %27
  %48 = mul nsw i32 %46, %47
  %49 = add nsw i32 %35, %2
  %50 = sext i32 %49 to i64
  %51 = getelementptr inbounds i8, ptr %1, i64 %50
  %52 = load i8, ptr %51, align 1, !tbaa !4
  %53 = zext i8 %52 to i32
  %54 = mul nsw i32 %40, %53
  %55 = getelementptr i8, ptr %51, i64 1
  %56 = load i8, ptr %55, align 1, !tbaa !4
  %57 = zext i8 %56 to i32
  %58 = mul nsw i32 %26, %57
  %59 = add nsw i32 %58, %54
  %60 = mul nsw i32 %59, %27
  %61 = add i32 %48, %11
  %62 = add i32 %61, %60
  %63 = ashr i32 %62, %20
  %64 = trunc i32 %63 to i8
  br label %113

65:                                               ; preds = %32
  %66 = icmp slt i32 %29, 0
  %..i = tail call i32 @llvm.smin.i32(i32 %29, i32 %17)
  %.0.i = select i1 %66, i32 0, i32 %..i
  %67 = mul nsw i32 %.0.i, %2
  %68 = add nsw i32 %67, %28
  %69 = sext i32 %68 to i64
  %70 = getelementptr inbounds i8, ptr %1, i64 %69
  %71 = load i8, ptr %70, align 1, !tbaa !4
  %72 = zext i8 %71 to i32
  %73 = sub nsw i32 %15, %26
  %74 = mul nsw i32 %73, %72
  %75 = getelementptr i8, ptr %70, i64 1
  %76 = load i8, ptr %75, align 1, !tbaa !4
  %77 = zext i8 %76 to i32
  %78 = mul nsw i32 %26, %77
  %79 = add nsw i32 %78, %74
  %80 = shl i32 %79, %10
  %81 = add nsw i32 %80, %11
  %82 = ashr i32 %81, %20
  %83 = trunc i32 %82 to i8
  br label %113

84:                                               ; preds = %23
  %85 = icmp slt i32 %28, 0
  %..i120 = tail call i32 @llvm.smin.i32(i32 %28, i32 %16)
  %.0.i121 = select i1 %85, i32 0, i32 %..i120
  br i1 %31, label %86, label %106

86:                                               ; preds = %84
  %87 = mul nsw i32 %29, %2
  %88 = add nsw i32 %.0.i121, %87
  %89 = sext i32 %88 to i64
  %90 = getelementptr inbounds i8, ptr %1, i64 %89
  %91 = load i8, ptr %90, align 1, !tbaa !4
  %92 = zext i8 %91 to i32
  %93 = sub nsw i32 %15, %27
  %94 = mul nsw i32 %93, %92
  %95 = add nsw i32 %88, %2
  %96 = sext i32 %95 to i64
  %97 = getelementptr inbounds i8, ptr %1, i64 %96
  %98 = load i8, ptr %97, align 1, !tbaa !4
  %99 = zext i8 %98 to i32
  %100 = mul nsw i32 %27, %99
  %101 = add nsw i32 %100, %94
  %102 = shl i32 %101, %10
  %103 = add nsw i32 %102, %11
  %104 = ashr i32 %103, %20
  %105 = trunc i32 %104 to i8
  br label %113

106:                                              ; preds = %84
  %107 = icmp slt i32 %29, 0
  %..i124 = tail call i32 @llvm.smin.i32(i32 %29, i32 %17)
  %.0.i125 = select i1 %107, i32 0, i32 %..i124
  %108 = mul nsw i32 %.0.i125, %2
  %109 = add nsw i32 %108, %.0.i121
  %110 = sext i32 %109 to i64
  %111 = getelementptr inbounds i8, ptr %1, i64 %110
  %112 = load i8, ptr %111, align 1, !tbaa !4
  br label %113

113:                                              ; preds = %86, %106, %33, %65
  %.sink = phi i8 [ %105, %86 ], [ %112, %106 ], [ %64, %33 ], [ %83, %65 ]
  %gep138 = getelementptr i8, ptr %invariant.gep137.sink, i64 %indvars.iv
  store i8 %.sink, ptr %gep138, align 1, !tbaa !4
  %114 = add nsw i32 %.0112126, %6
  %115 = add nsw i32 %.0111127, %8
  %indvars.iv.next = add nuw nsw i64 %indvars.iv, 1
  %exitcond.not = icmp eq i64 %indvars.iv.next, 8
  br i1 %exitcond.not, label %116, label %23, !llvm.loop !7

116:                                              ; preds = %113
  %117 = add nsw i32 %.0131, %7
  %118 = add nsw i32 %.0109130, %9
  %indvars.iv.next134 = add nuw nsw i64 %indvars.iv133, 1
  %exitcond136.not = icmp eq i64 %indvars.iv.next134, %wide.trip.count
  br i1 %exitcond136.not, label %._crit_edge, label %.preheader, !llvm.loop !9

._crit_edge:                                      ; preds = %116, %14
  ret void
}